	.file	"v0.cpp"
	.text
.Ltext0:
	.file 0 "/home/ali/fastfun/saleh/parallel-programming/chapter2" "v0.cpp"
	.p2align 4
	.globl	_Z4stepPfPKfi
	.type	_Z4stepPfPKfi, @function
_Z4stepPfPKfi:
.LVL0:
.LFB1994:
	.file 1 "v0.cpp"
	.loc 1 5 43 view -0
	.cfi_startproc
	.loc 1 5 43 is_stmt 0 view .LVU1
	endbr64
	.loc 1 6 5 is_stmt 1 view .LVU2
.LVL1:
.LBB46:
	.loc 1 6 19 view .LVU3
	testl	%edx, %edx
	jle	.L11
.LBE46:
	.loc 1 5 43 is_stmt 0 view .LVU4
	pushq	%r12
	.cfi_def_cfa_offset 16
	.cfi_offset 12, -16
	movslq	%edx, %rcx
	leal	-1(%rdx), %eax
	pushq	%rbp
	.cfi_def_cfa_offset 24
	.cfi_offset 6, -24
	vmovss	.LC0(%rip), %xmm2
	movq	%rsi, %rbp
	pushq	%rbx
	.cfi_def_cfa_offset 32
	.cfi_offset 3, -32
	movq	%rdi, %r9
	movl	%edx, %r12d
	salq	$2, %rcx
	leaq	4(%rsi,%rax,4), %rsi
.LVL2:
.LBB57:
	.loc 1 6 19 view .LVU5
	movq	%rbp, %r10
	.loc 1 6 13 view .LVU6
	xorl	%ebx, %ebx
	movl	%edx, %r11d
.LVL3:
	.p2align 4,,10
	.p2align 3
.L3:
.LBB47:
	.loc 1 7 23 is_stmt 1 view .LVU7
.LBE47:
.LBE57:
	.loc 1 5 43 is_stmt 0 view .LVU8
	movq	%rbp, %r8
	xorl	%edi, %edi
.LVL4:
	.p2align 4,,10
	.p2align 3
.L6:
.LBB58:
.LBB55:
.LBB48:
	.loc 1 8 13 is_stmt 1 view .LVU9
	.loc 1 9 13 view .LVU10
.LBB49:
	.loc 1 9 27 view .LVU11
.LBE49:
.LBE48:
.LBE55:
.LBE58:
	.loc 1 5 43 is_stmt 0 view .LVU12
	movq	%r8, %rdx
	movq	%r10, %rax
.LBB59:
.LBB56:
.LBB54:
	.loc 1 8 19 view .LVU13
	vmovaps	%xmm2, %xmm1
.LVL5:
	.p2align 4,,10
	.p2align 3
.L5:
.LBB53:
.LBB50:
	.loc 1 10 17 is_stmt 1 discriminator 3 view .LVU14
#APP
# 10 "v0.cpp" 1
	# foo-start
# 0 "" 2
	.loc 1 11 17 discriminator 3 view .LVU15
.LVL6:
	.loc 1 12 17 discriminator 3 view .LVU16
	.loc 1 13 17 discriminator 3 view .LVU17
	.loc 1 13 28 is_stmt 0 discriminator 3 view .LVU18
#NO_APP
	vmovss	(%rax), %xmm0
	vaddss	(%rdx), %xmm0, %xmm0
.LVL7:
	.loc 1 14 17 is_stmt 1 discriminator 3 view .LVU19
.LBB51:
.LBI51:
	.file 2 "/usr/include/c++/11/bits/stl_algobase.h"
	.loc 2 230 5 discriminator 3 view .LVU20
.LBB52:
	.loc 2 237 14 is_stmt 0 discriminator 3 view .LVU21
	vminss	%xmm0, %xmm1, %xmm1
.LVL8:
	.loc 2 237 14 discriminator 3 view .LVU22
.LBE52:
.LBE51:
	.loc 1 15 17 is_stmt 1 discriminator 3 view .LVU23
#APP
# 15 "v0.cpp" 1
	# foo-end
# 0 "" 2
.LVL9:
	.loc 1 15 17 is_stmt 0 discriminator 3 view .LVU24
#NO_APP
.LBE50:
	.loc 1 9 13 is_stmt 1 discriminator 3 view .LVU25
	.loc 1 9 27 discriminator 3 view .LVU26
	addq	$4, %rax
.LVL10:
	.loc 1 9 27 is_stmt 0 discriminator 3 view .LVU27
	addq	%rcx, %rdx
.LVL11:
	.loc 1 9 27 discriminator 3 view .LVU28
	cmpq	%rsi, %rax
	jne	.L5
	.loc 1 9 27 discriminator 3 view .LVU29
.LBE53:
	.loc 1 17 13 is_stmt 1 discriminator 2 view .LVU30
	.loc 1 17 22 is_stmt 0 discriminator 2 view .LVU31
	vmovss	%xmm1, (%r9,%rdi,4)
.LVL12:
	.loc 1 17 22 discriminator 2 view .LVU32
.LBE54:
	.loc 1 7 9 is_stmt 1 discriminator 2 view .LVU33
	.loc 1 7 23 discriminator 2 view .LVU34
	incq	%rdi
.LVL13:
	.loc 1 7 23 is_stmt 0 discriminator 2 view .LVU35
	addq	$4, %r8
	cmpq	%r11, %rdi
	jne	.L6
.LBE56:
	.loc 1 6 5 is_stmt 1 discriminator 2 view .LVU36
	incl	%ebx
.LVL14:
	.loc 1 6 19 discriminator 2 view .LVU37
	addq	%rcx, %r9
	addq	%rcx, %rsi
	addq	%rcx, %r10
	cmpl	%ebx, %r12d
	jne	.L3
.LBE59:
	.loc 1 20 1 is_stmt 0 view .LVU38
	popq	%rbx
	.cfi_def_cfa_offset 24
.LVL15:
	.loc 1 20 1 view .LVU39
	popq	%rbp
	.cfi_def_cfa_offset 16
.LVL16:
	.loc 1 20 1 view .LVU40
	popq	%r12
	.cfi_def_cfa_offset 8
.LVL17:
	.loc 1 20 1 view .LVU41
	ret
.LVL18:
.L11:
	.cfi_restore 3
	.cfi_restore 6
	.cfi_restore 12
	.loc 1 20 1 view .LVU42
	ret
	.cfi_endproc
.LFE1994:
	.size	_Z4stepPfPKfi, .-_Z4stepPfPKfi
	.section	.rodata.str1.1,"aMS",@progbits,1
.LC3:
	.string	" "
.LC4:
	.string	"\n"
	.section	.text.startup,"ax",@progbits
	.p2align 4
	.globl	main
	.type	main, @function
main:
.LFB1996:
	.loc 1 23 11 is_stmt 1 view -0
	.cfi_startproc
	endbr64
	leaq	8(%rsp), %r10
	.cfi_def_cfa 10, 0
	andq	$-32, %rsp
	pushq	-8(%r10)
	.loc 1 31 9 is_stmt 0 view .LVU44
	movl	$3, %edx
	.loc 1 23 11 view .LVU45
	pushq	%rbp
	movq	%rsp, %rbp
	.cfi_escape 0x10,0x6,0x2,0x76,0
	pushq	%r15
	.loc 1 31 9 view .LVU46
	leaq	-144(%rbp), %rsi
	.loc 1 23 11 view .LVU47
	pushq	%r14
	.cfi_escape 0x10,0xf,0x2,0x76,0x78
	.cfi_escape 0x10,0xe,0x2,0x76,0x70
	.loc 1 31 9 view .LVU48
	xorl	%r14d, %r14d
	.loc 1 23 11 view .LVU49
	pushq	%r13
	.cfi_escape 0x10,0xd,0x2,0x76,0x68
	leaq	.LC3(%rip), %r13
	pushq	%r12
	.cfi_escape 0x10,0xc,0x2,0x76,0x60
	leaq	_ZSt4cout(%rip), %r12
	pushq	%r10
	.cfi_escape 0xf,0x3,0x76,0x58,0x6
	pushq	%rbx
	.cfi_escape 0x10,0x3,0x2,0x76,0x50
	.loc 1 31 9 view .LVU50
	leaq	-96(%rbp), %rbx
	movq	%rbx, %rdi
	.loc 1 23 11 view .LVU51
	subq	$96, %rsp
	.loc 1 25 17 view .LVU52
	vmovaps	.LC1(%rip), %ymm0
	.loc 1 23 11 view .LVU53
	movq	%fs:40, %rax
	movq	%rax, -56(%rbp)
	xorl	%eax, %eax
	.loc 1 24 5 is_stmt 1 view .LVU54
.LVL19:
	.loc 1 25 5 view .LVU55
	.loc 1 25 17 is_stmt 0 view .LVU56
	movl	$0x00000000, -112(%rbp)
	.loc 1 30 5 is_stmt 1 view .LVU57
	.loc 1 31 5 view .LVU58
	.loc 1 25 17 is_stmt 0 view .LVU59
	vmovaps	%ymm0, -144(%rbp)
	.loc 1 31 9 view .LVU60
	call	_Z4stepPfPKfi
.LVL20:
	.loc 1 32 5 is_stmt 1 view .LVU61
.LBB75:
	.loc 1 32 23 view .LVU62
.L16:
.LBB76:
.LBB77:
	.loc 1 33 27 view .LVU63
.LBE77:
.LBE76:
.LBE75:
	.loc 1 23 11 is_stmt 0 view .LVU64
	xorl	%r15d, %r15d
.LVL21:
.L17:
.LBB91:
.LBB89:
.LBB84:
	.loc 1 34 13 is_stmt 1 view .LVU65
.LBB78:
.LBI78:
	.file 3 "/usr/include/c++/11/ostream"
	.loc 3 224 7 view .LVU66
.LBB79:
	.loc 3 228 18 is_stmt 0 view .LVU67
	vxorpd	%xmm1, %xmm1, %xmm1
	movq	%r12, %rdi
	vcvtss2sd	(%rbx,%r15,4), %xmm1, %xmm0
	call	_ZNSo9_M_insertIdEERSoT_@PLT
.LVL22:
	.loc 3 228 18 view .LVU68
	movq	%rax, %rdi
.LVL23:
	.loc 3 228 18 view .LVU69
.LBE79:
.LBE78:
.LBB80:
.LBI80:
	.loc 3 611 5 is_stmt 1 view .LVU70
.LBB81:
	.loc 3 616 18 is_stmt 0 view .LVU71
	movl	$1, %edx
	movq	%r13, %rsi
.LBE81:
.LBE80:
	.loc 1 33 27 view .LVU72
	incq	%r15
.LVL24:
.LBB83:
.LBB82:
	.loc 3 616 18 view .LVU73
	call	_ZSt16__ostream_insertIcSt11char_traitsIcEERSt13basic_ostreamIT_T0_ES6_PKS3_l@PLT
.LVL25:
	.loc 3 616 18 view .LVU74
.LBE82:
.LBE83:
	.loc 1 33 9 is_stmt 1 view .LVU75
	.loc 1 33 27 view .LVU76
	cmpq	$3, %r15
	jne	.L17
.LBE84:
	.loc 1 36 9 view .LVU77
.LVL26:
.LBB85:
.LBI85:
	.loc 3 611 5 view .LVU78
.LBB86:
	.loc 3 616 18 is_stmt 0 view .LVU79
	movl	$1, %edx
	leaq	.LC4(%rip), %rsi
	movq	%r12, %rdi
.LBE86:
.LBE85:
.LBE89:
	.loc 1 32 23 view .LVU80
	addl	$3, %r14d
.LBB90:
.LBB88:
.LBB87:
	.loc 3 616 18 view .LVU81
	call	_ZSt16__ostream_insertIcSt11char_traitsIcEERSt13basic_ostreamIT_T0_ES6_PKS3_l@PLT
.LVL27:
	.loc 3 616 18 view .LVU82
.LBE87:
.LBE88:
.LBE90:
	.loc 1 32 5 is_stmt 1 view .LVU83
	.loc 1 32 23 view .LVU84
	addq	$12, %rbx
.LVL28:
	.loc 1 32 23 is_stmt 0 view .LVU85
	cmpl	$9, %r14d
	jne	.L16
.LBE91:
	.loc 1 38 5 is_stmt 1 view .LVU86
	.loc 1 39 1 is_stmt 0 view .LVU87
	movq	-56(%rbp), %rax
	subq	%fs:40, %rax
	jne	.L22
	addq	$96, %rsp
	popq	%rbx
.LVL29:
	.loc 1 39 1 view .LVU88
	popq	%r10
	.cfi_remember_state
	.cfi_def_cfa 10, 0
	popq	%r12
	popq	%r13
	popq	%r14
	popq	%r15
	xorl	%eax, %eax
	popq	%rbp
	leaq	-8(%r10), %rsp
	.cfi_def_cfa 7, 8
	ret
.LVL30:
.L22:
	.cfi_restore_state
	.loc 1 39 1 view .LVU89
	call	__stack_chk_fail@PLT
.LVL31:
	.cfi_endproc
.LFE1996:
	.size	main, .-main
	.p2align 4
	.type	_GLOBAL__sub_I__Z4stepPfPKfi, @function
_GLOBAL__sub_I__Z4stepPfPKfi:
.LFB2482:
	.loc 1 39 1 is_stmt 1 view -0
	.cfi_startproc
	endbr64
.LVL32:
.LBB92:
.LBI92:
	.loc 1 39 1 view .LVU91
.LBE92:
	pushq	%rbp
	.cfi_def_cfa_offset 16
	.cfi_offset 6, -16
.LBB95:
.LBB93:
	.file 4 "/usr/include/c++/11/iostream"
	.loc 4 74 25 is_stmt 0 view .LVU92
	leaq	_ZStL8__ioinit(%rip), %rbp
	movq	%rbp, %rdi
	call	_ZNSt8ios_base4InitC1Ev@PLT
.LVL33:
	movq	_ZNSt8ios_base4InitD1Ev@GOTPCREL(%rip), %rdi
	movq	%rbp, %rsi
	leaq	__dso_handle(%rip), %rdx
.LBE93:
.LBE95:
	.loc 1 39 1 view .LVU93
	popq	%rbp
	.cfi_def_cfa_offset 8
.LBB96:
.LBB94:
	.loc 4 74 25 view .LVU94
	jmp	__cxa_atexit@PLT
.LVL34:
.LBE94:
.LBE96:
	.cfi_endproc
.LFE2482:
	.size	_GLOBAL__sub_I__Z4stepPfPKfi, .-_GLOBAL__sub_I__Z4stepPfPKfi
	.section	.init_array,"aw"
	.align 8
	.quad	_GLOBAL__sub_I__Z4stepPfPKfi
	.local	_ZStL8__ioinit
	.comm	_ZStL8__ioinit,1,1
	.section	.rodata.cst4,"aM",@progbits,4
	.align 4
.LC0:
	.long	2139095040
	.section	.rodata.cst32,"aM",@progbits,32
	.align 32
.LC1:
	.long	0
	.long	1090519040
	.long	1073741824
	.long	1065353216
	.long	0
	.long	1091567616
	.long	1082130432
	.long	1084227584
	.text
.Letext0:
	.file 5 "<built-in>"
	.file 6 "/usr/lib/gcc/x86_64-linux-gnu/11/include/stddef.h"
	.file 7 "/usr/include/x86_64-linux-gnu/bits/types/wint_t.h"
	.file 8 "/usr/include/x86_64-linux-gnu/bits/types/__mbstate_t.h"
	.file 9 "/usr/include/x86_64-linux-gnu/bits/types/mbstate_t.h"
	.file 10 "/usr/include/x86_64-linux-gnu/bits/types/__FILE.h"
	.file 11 "/usr/include/x86_64-linux-gnu/bits/types/struct_FILE.h"
	.file 12 "/usr/include/x86_64-linux-gnu/bits/types/FILE.h"
	.file 13 "/usr/include/c++/11/cwchar"
	.file 14 "/usr/include/c++/11/bits/exception_ptr.h"
	.file 15 "/usr/include/x86_64-linux-gnu/c++/11/bits/c++config.h"
	.file 16 "/usr/include/c++/11/type_traits"
	.file 17 "/usr/include/c++/11/debug/debug.h"
	.file 18 "/usr/include/c++/11/bits/char_traits.h"
	.file 19 "/usr/include/c++/11/cstdint"
	.file 20 "/usr/include/c++/11/clocale"
	.file 21 "/usr/include/c++/11/cstdlib"
	.file 22 "/usr/include/c++/11/cstdio"
	.file 23 "/usr/include/c++/11/bits/ios_base.h"
	.file 24 "/usr/include/c++/11/cwctype"
	.file 25 "/usr/include/c++/11/bits/ostream.tcc"
	.file 26 "/usr/include/c++/11/iosfwd"
	.file 27 "/usr/include/c++/11/bits/basic_ios.tcc"
	.file 28 "/usr/include/c++/11/bits/basic_ios.h"
	.file 29 "/usr/include/c++/11/bits/ostream_insert.h"
	.file 30 "/usr/include/c++/11/bits/postypes.h"
	.file 31 "/usr/include/wchar.h"
	.file 32 "/usr/include/x86_64-linux-gnu/bits/wchar2.h"
	.file 33 "/usr/include/x86_64-linux-gnu/bits/types/struct_tm.h"
	.file 34 "/usr/include/c++/11/bits/predefined_ops.h"
	.file 35 "/usr/include/x86_64-linux-gnu/bits/types.h"
	.file 36 "/usr/include/x86_64-linux-gnu/bits/stdint-intn.h"
	.file 37 "/usr/include/x86_64-linux-gnu/bits/stdint-uintn.h"
	.file 38 "/usr/include/stdint.h"
	.file 39 "/usr/include/locale.h"
	.file 40 "/usr/include/stdlib.h"
	.file 41 "/usr/include/x86_64-linux-gnu/bits/stdlib-float.h"
	.file 42 "/usr/include/x86_64-linux-gnu/bits/stdlib-bsearch.h"
	.file 43 "/usr/include/x86_64-linux-gnu/bits/stdlib.h"
	.file 44 "/usr/include/x86_64-linux-gnu/bits/types/__fpos_t.h"
	.file 45 "/usr/include/stdio.h"
	.file 46 "/usr/include/x86_64-linux-gnu/bits/stdio2.h"
	.file 47 "/usr/include/x86_64-linux-gnu/bits/stdio.h"
	.file 48 "/usr/include/x86_64-linux-gnu/bits/wctype-wchar.h"
	.file 49 "/usr/include/wctype.h"
	.file 50 "/usr/include/c++/11/system_error"
	.section	.note.GNU-stack,"",@progbits
	.section	.note.gnu.property,"a"
	.align 8
	.long	1f - 0f
	.long	4f - 1f
	.long	5
0:
	.string	"GNU"
1:
	.align 8
	.long	0xc0000002
	.long	3f - 2f
2:
	.long	0x3
3:
	.align 8
4:
