	.file	"cp.cc"
	.text
.Ltext0:
	.file 0 "/home/ali/fastfun/saleh/parallel-programming/exercises/cp2a" "cp.cc"
	.section	.rodata.str1.1,"aMS",@progbits,1
.LC0:
	.string	" "
.LC1:
	.string	"\n"
	.text
	.p2align 4
	.globl	_Z5printiiPd
	.type	_Z5printiiPd, @function
_Z5printiiPd:
.LVL0:
.LFB2386:
	.file 1 "cp.cc"
	.loc 1 13 42 view -0
	.cfi_startproc
	.loc 1 13 42 is_stmt 0 view .LVU1
	endbr64
	.loc 1 14 5 is_stmt 1 view .LVU2
.LVL1:
.LBB54:
	.loc 1 14 22 view .LVU3
.LBE54:
	.loc 1 13 42 is_stmt 0 view .LVU4
	pushq	%r15
	.cfi_def_cfa_offset 16
	.cfi_offset 15, -16
	pushq	%r14
	.cfi_def_cfa_offset 24
	.cfi_offset 14, -24
	pushq	%r13
	.cfi_def_cfa_offset 32
	.cfi_offset 13, -32
	pushq	%r12
	.cfi_def_cfa_offset 40
	.cfi_offset 12, -40
	pushq	%rbp
	.cfi_def_cfa_offset 48
	.cfi_offset 6, -48
	pushq	%rbx
	.cfi_def_cfa_offset 56
	.cfi_offset 3, -56
	subq	$24, %rsp
	.cfi_def_cfa_offset 80
	.loc 1 13 42 view .LVU5
	movl	%edi, 4(%rsp)
	movq	%rdx, 8(%rsp)
.LBB68:
	.loc 1 14 22 view .LVU6
	testl	%edi, %edi
	jle	.L8
	movl	$0, (%rsp)
	movl	%esi, %r13d
	.loc 1 14 14 view .LVU7
	xorl	%r14d, %r14d
	leaq	_ZSt4cout(%rip), %rbx
	leaq	.LC0(%rip), %r12
.LVL2:
	.p2align 4,,10
	.p2align 3
.L3:
.LBB55:
.LBB56:
	.loc 1 15 26 is_stmt 1 view .LVU8
	testl	%r13d, %r13d
	jle	.L6
	movslq	(%rsp), %rdx
	movq	8(%rsp), %rcx
	leal	-1(%r13), %eax
	addq	%rdx, %rax
	leaq	(%rcx,%rdx,8), %r15
	leaq	8(%rcx,%rax,8), %rbp
.LVL3:
	.p2align 4,,10
	.p2align 3
.L4:
	.loc 1 16 13 discriminator 3 view .LVU9
.LBB57:
.LBI57:
	.file 2 "/usr/include/c++/11/ostream"
	.loc 2 220 7 discriminator 3 view .LVU10
.LBB58:
	.loc 2 221 25 is_stmt 0 discriminator 3 view .LVU11
	vmovsd	(%r15), %xmm0
	movq	%rbx, %rdi
	call	_ZNSo9_M_insertIdEERSoT_@PLT
.LVL4:
	.loc 2 221 25 discriminator 3 view .LVU12
	movq	%rax, %rdi
.LVL5:
	.loc 2 221 25 discriminator 3 view .LVU13
.LBE58:
.LBE57:
.LBB59:
.LBI59:
	.loc 2 611 5 is_stmt 1 discriminator 3 view .LVU14
.LBB60:
	.loc 2 616 18 is_stmt 0 discriminator 3 view .LVU15
	movl	$1, %edx
	movq	%r12, %rsi
.LBE60:
.LBE59:
	.loc 1 15 26 discriminator 3 view .LVU16
	addq	$8, %r15
.LVL6:
.LBB62:
.LBB61:
	.loc 2 616 18 discriminator 3 view .LVU17
	call	_ZSt16__ostream_insertIcSt11char_traitsIcEERSt13basic_ostreamIT_T0_ES6_PKS3_l@PLT
.LVL7:
	.loc 2 616 18 discriminator 3 view .LVU18
.LBE61:
.LBE62:
	.loc 1 15 9 is_stmt 1 discriminator 3 view .LVU19
	.loc 1 15 26 discriminator 3 view .LVU20
	cmpq	%r15, %rbp
	jne	.L4
.L6:
	.loc 1 15 26 is_stmt 0 discriminator 3 view .LVU21
.LBE56:
	.loc 1 18 9 is_stmt 1 view .LVU22
.LVL8:
.LBB63:
.LBI63:
	.loc 2 611 5 view .LVU23
.LBB64:
	.loc 2 616 18 is_stmt 0 view .LVU24
	movl	$1, %edx
	leaq	.LC1(%rip), %rsi
	movq	%rbx, %rdi
.LBE64:
.LBE63:
.LBE55:
	.loc 1 14 5 view .LVU25
	incl	%r14d
.LVL9:
.LBB67:
.LBB66:
.LBB65:
	.loc 2 616 18 view .LVU26
	call	_ZSt16__ostream_insertIcSt11char_traitsIcEERSt13basic_ostreamIT_T0_ES6_PKS3_l@PLT
.LVL10:
	.loc 2 616 18 view .LVU27
.LBE65:
.LBE66:
.LBE67:
	.loc 1 14 5 is_stmt 1 view .LVU28
	.loc 1 14 22 view .LVU29
	addl	%r13d, (%rsp)
	cmpl	%r14d, 4(%rsp)
	jne	.L3
.LVL11:
.L8:
	.loc 1 14 22 is_stmt 0 view .LVU30
.LBE68:
	.loc 1 20 1 view .LVU31
	addq	$24, %rsp
	.cfi_def_cfa_offset 56
	popq	%rbx
	.cfi_def_cfa_offset 48
	popq	%rbp
	.cfi_def_cfa_offset 40
	popq	%r12
	.cfi_def_cfa_offset 32
	popq	%r13
	.cfi_def_cfa_offset 24
	popq	%r14
	.cfi_def_cfa_offset 16
	popq	%r15
	.cfi_def_cfa_offset 8
	ret
	.cfi_endproc
.LFE2386:
	.size	_Z5printiiPd, .-_Z5printiiPd
	.section	.text.unlikely,"ax",@progbits
.LCOLDB4:
	.text
.LHOTB4:
	.p2align 4
	.section	.text.unlikely
.Ltext_cold0:
	.text
	.globl	_Z9correlateiiPKfPf
	.type	_Z9correlateiiPKfPf, @function
_Z9correlateiiPKfPf:
.LVL12:
.LFB2387:
	.loc 1 22 66 is_stmt 1 view -0
	.cfi_startproc
	.loc 1 22 66 is_stmt 0 view .LVU33
	endbr64
	.loc 1 23 5 is_stmt 1 view .LVU34
	.loc 1 24 5 view .LVU35
	.loc 1 25 5 view .LVU36
	.loc 1 26 5 view .LVU37
	.loc 1 22 66 is_stmt 0 view .LVU38
	pushq	%r13
	.cfi_def_cfa_offset 16
	.cfi_offset 13, -16
	movslq	%edi, %rax
	leaq	16(%rsp), %r13
	.cfi_def_cfa 13, 0
	andq	$-32, %rsp
	pushq	-8(%r13)
	pushq	%rbp
	movq	%rsp, %rbp
	.cfi_escape 0x10,0x6,0x2,0x76,0
	pushq	%r15
	pushq	%r14
	pushq	%r13
	.cfi_escape 0xf,0x3,0x76,0x68,0x6
	.cfi_escape 0x10,0xf,0x2,0x76,0x78
	.cfi_escape 0x10,0xe,0x2,0x76,0x70
	pushq	%r12
	pushq	%rbx
	.cfi_escape 0x10,0xc,0x2,0x76,0x60
	.cfi_escape 0x10,0x3,0x2,0x76,0x58
	.loc 1 26 33 view .LVU39
	movabsq	$1152921504606846975, %rbx
	.loc 1 22 66 view .LVU40
	subq	$232, %rsp
	.loc 1 22 66 view .LVU41
	movl	%eax, -56(%rbp)
	movl	%esi, -64(%rbp)
	movq	%rcx, -104(%rbp)
	.loc 1 26 31 view .LVU42
	movq	%rax, -80(%rbp)
	vmovaps	%xmm5, -96(%rbp)
	.loc 1 26 33 view .LVU43
	cmpq	%rbx, %rax
	ja	.L12
	.loc 1 26 33 discriminator 1 view .LVU44
	leaq	0(,%rax,8), %rdi
.LVL13:
	.loc 1 26 33 discriminator 1 view .LVU45
	movq	%rax, %r14
	movq	%rdx, %r15
	call	_Znam@PLT
.LVL14:
	.loc 1 39 35 discriminator 1 view .LVU46
	movl	-64(%rbp), %r8d
	.loc 1 26 33 discriminator 1 view .LVU47
	movq	%rax, -72(%rbp)
.LVL15:
	.loc 1 27 5 is_stmt 1 discriminator 1 view .LVU48
	.loc 1 28 5 discriminator 1 view .LVU49
	.loc 1 30 5 discriminator 1 view .LVU50
	.loc 1 31 5 discriminator 1 view .LVU51
	.loc 1 32 5 discriminator 1 view .LVU52
	.loc 1 33 5 discriminator 1 view .LVU53
	.loc 1 38 5 discriminator 1 view .LVU54
	.loc 1 39 5 discriminator 1 view .LVU55
	.loc 1 39 35 is_stmt 0 discriminator 1 view .LVU56
	movl	%r14d, %eax
.LVL16:
	.loc 1 39 35 discriminator 1 view .LVU57
	imull	%r8d, %eax
	cltq
	.loc 1 39 38 discriminator 1 view .LVU58
	cmpq	%rbx, %rax
	ja	.L12
	.loc 1 39 38 view .LVU59
	leaq	0(,%rax,8), %rdi
	movl	%r8d, -64(%rbp)
.LVL17:
	.loc 1 39 38 view .LVU60
	call	_Znam@PLT
.LVL18:
	movq	%rax, %r9
.LVL19:
.LBB69:
	.loc 1 41 22 is_stmt 1 view .LVU61
	movl	-56(%rbp), %eax
	movl	-64(%rbp), %r8d
	testl	%eax, %eax
	vmovaps	-96(%rbp), %xmm5
	jle	.L34
	movq	-72(%rbp), %rdi
	movl	-56(%rbp), %eax
	leal	-1(%r8), %r14d
.LVL20:
	.loc 1 41 22 is_stmt 0 view .LVU62
	leaq	(%rdi,%rax,8), %r13
	movl	%r8d, %eax
	shrl	$3, %eax
	leal	-1(%rax), %ecx
	vxorps	%xmm1, %xmm1, %xmm1
	movl	%r14d, %eax
	movq	%rax, -64(%rbp)
.LBB70:
	.loc 1 46 17 view .LVU63
	vcvtsi2sdl	%r8d, %xmm1, %xmm6
	leaq	4(%r15), %rax
	movq	%rax, -96(%rbp)
	incq	%rcx
	movl	%r8d, %ebx
	movq	%rdi, %rsi
	salq	$5, %rcx
	andl	$-8, %ebx
	xorl	%edi, %edi
.LVL21:
.L23:
	.loc 1 42 9 is_stmt 1 view .LVU64
	.loc 1 43 9 view .LVU65
.LBB71:
	.loc 1 43 26 view .LVU66
	testl	%r8d, %r8d
	jle	.L15
	movq	-64(%rbp), %r11
	movslq	%edi, %r10
	movq	-96(%rbp), %r12
	leaq	(%r15,%r10,4), %rdx
	addq	%r10, %r11
	movq	%rdx, %rax
	leaq	(%r12,%r11,4), %r11
	.loc 1 44 34 is_stmt 0 view .LVU67
	vxorpd	%xmm3, %xmm3, %xmm3
.LVL22:
	.p2align 4,,10
	.p2align 3
.L16:
	.loc 1 44 13 is_stmt 1 discriminator 3 view .LVU68
	.loc 1 44 37 is_stmt 0 discriminator 3 view .LVU69
	vcvtss2sd	(%rax), %xmm1, %xmm0
	.loc 1 43 26 discriminator 3 view .LVU70
	addq	$4, %rax
.LVL23:
	.loc 1 44 21 discriminator 3 view .LVU71
	vaddsd	%xmm0, %xmm3, %xmm3
	.loc 1 43 9 is_stmt 1 discriminator 3 view .LVU72
.LVL24:
	.loc 1 43 26 discriminator 3 view .LVU73
	cmpq	%r11, %rax
	jne	.L16
.LBE71:
	.loc 1 46 9 view .LVU74
	.loc 1 46 17 is_stmt 0 view .LVU75
	vdivsd	%xmm6, %xmm3, %xmm3
	vmovsd	%xmm3, (%rsi)
	.loc 1 47 9 is_stmt 1 view .LVU76
.LVL25:
.LBB72:
	.loc 1 47 26 view .LVU77
	cmpl	$6, %r14d
	jbe	.L37
	vbroadcastsd	%xmm3, %ymm4
	leaq	(%r9,%r10,8), %r11
.LBE72:
	.loc 1 46 17 is_stmt 0 view .LVU78
	xorl	%eax, %eax
.LVL26:
	.p2align 4,,10
	.p2align 3
.L21:
.LBB73:
	.loc 1 48 13 is_stmt 1 discriminator 3 view .LVU79
	.loc 1 48 41 is_stmt 0 discriminator 3 view .LVU80
	vmovups	(%rdx,%rax), %ymm0
	vcvtps2pd	%xmm0, %ymm2
	vextractf128	$0x1, %ymm0, %xmm0
	.loc 1 48 43 discriminator 3 view .LVU81
	vsubpd	%ymm4, %ymm2, %ymm2
	.loc 1 48 41 discriminator 3 view .LVU82
	vcvtps2pd	%xmm0, %ymm0
	.loc 1 48 43 discriminator 3 view .LVU83
	vsubpd	%ymm4, %ymm0, %ymm0
	.loc 1 48 28 discriminator 3 view .LVU84
	vmovupd	%ymm2, (%r11,%rax,2)
	vmovupd	%ymm0, 32(%r11,%rax,2)
	.loc 1 47 9 is_stmt 1 discriminator 3 view .LVU85
	.loc 1 47 26 discriminator 3 view .LVU86
	addq	$32, %rax
	cmpq	%rcx, %rax
	jne	.L21
	cmpl	%ebx, %r8d
	je	.L36
	.loc 1 48 28 is_stmt 0 view .LVU87
	movl	%ebx, %eax
	movl	%ebx, %edx
.L35:
	movl	%r8d, %r11d
	subl	%eax, %r11d
	leal	-1(%r11), %r12d
	cmpl	$2, %r12d
	jbe	.L19
	addq	%r10, %rax
	.loc 1 48 41 view .LVU88
	vmovups	(%r15,%rax,4), %xmm4
	vmovddup	%xmm3, %xmm0
	vcvtps2pd	%xmm4, %xmm2
	.loc 1 48 43 view .LVU89
	vsubpd	%xmm0, %xmm2, %xmm2
	leaq	(%r9,%rax,8), %r10
	.loc 1 48 13 is_stmt 1 view .LVU90
	.loc 1 48 41 is_stmt 0 view .LVU91
	vmovhlps	%xmm4, %xmm5, %xmm5
	.loc 1 48 28 view .LVU92
	vmovupd	%xmm2, (%r10)
	.loc 1 48 41 view .LVU93
	vcvtps2pd	%xmm5, %xmm2
	.loc 1 48 43 view .LVU94
	vsubpd	%xmm0, %xmm2, %xmm0
	movl	%r11d, %eax
	andl	$-4, %eax
	.loc 1 48 28 view .LVU95
	vmovupd	%xmm0, 16(%r10)
	.loc 1 47 9 is_stmt 1 view .LVU96
	.loc 1 47 26 view .LVU97
	addl	%eax, %edx
	cmpl	%r11d, %eax
	je	.L36
.L19:
.LVL27:
	.loc 1 48 13 view .LVU98
	.loc 1 48 39 is_stmt 0 view .LVU99
	leal	(%rdi,%rdx), %eax
	cltq
	.loc 1 48 41 view .LVU100
	vcvtss2sd	(%r15,%rax,4), %xmm1, %xmm0
	.loc 1 48 43 view .LVU101
	vsubsd	%xmm3, %xmm0, %xmm0
	.loc 1 48 28 view .LVU102
	vmovsd	%xmm0, (%r9,%rax,8)
	.loc 1 47 9 is_stmt 1 view .LVU103
	leal	1(%rdx), %eax
.LVL28:
	.loc 1 47 26 view .LVU104
	cmpl	%eax, %r8d
	jle	.L36
	.loc 1 48 13 view .LVU105
	.loc 1 48 39 is_stmt 0 view .LVU106
	addl	%edi, %eax
.LVL29:
	.loc 1 48 39 view .LVU107
	cltq
	.loc 1 48 41 view .LVU108
	vcvtss2sd	(%r15,%rax,4), %xmm1, %xmm0
	.loc 1 48 43 view .LVU109
	vsubsd	%xmm3, %xmm0, %xmm0
	.loc 1 47 9 view .LVU110
	addl	$2, %edx
.LVL30:
	.loc 1 48 28 view .LVU111
	vmovsd	%xmm0, (%r9,%rax,8)
	.loc 1 47 9 is_stmt 1 view .LVU112
.LVL31:
	.loc 1 47 26 view .LVU113
	cmpl	%edx, %r8d
	jle	.L36
	.loc 1 48 13 view .LVU114
	.loc 1 48 39 is_stmt 0 view .LVU115
	addl	%edi, %edx
	movslq	%edx, %rax
	.loc 1 48 41 view .LVU116
	vcvtss2sd	(%r15,%rax,4), %xmm1, %xmm0
	.loc 1 48 43 view .LVU117
	vsubsd	%xmm3, %xmm0, %xmm0
	.loc 1 48 28 view .LVU118
	vmovsd	%xmm0, (%r9,%rax,8)
	.loc 1 47 9 is_stmt 1 view .LVU119
	.loc 1 47 26 view .LVU120
.L36:
	.loc 1 47 26 is_stmt 0 view .LVU121
.LBE73:
.LBE70:
	.loc 1 41 5 is_stmt 1 discriminator 2 view .LVU122
.LVL32:
	.loc 1 41 22 discriminator 2 view .LVU123
	addq	$8, %rsi
.LVL33:
	.loc 1 41 22 is_stmt 0 discriminator 2 view .LVU124
	addl	%r8d, %edi
	cmpq	%r13, %rsi
	jne	.L23
.LBE69:
.LBB76:
.LBB77:
.LBB78:
.LBB79:
	.loc 1 69 33 view .LVU125
	testl	%r8d, %r8d
	leal	3(%r8), %eax
	cmovns	%r8d, %eax
	sarl	$2, %eax
	cmpl	$1, -56(%rbp)
	movl	%eax, %esi
.LVL34:
	.loc 1 69 33 view .LVU126
.LBE79:
.LBE78:
	.loc 1 59 26 is_stmt 1 view .LVU127
	.loc 1 59 26 is_stmt 0 view .LVU128
.LBE77:
	.loc 1 58 5 is_stmt 1 view .LVU129
	.loc 1 58 22 view .LVU130
	je	.L52
	movq	-104(%rbp), %rax
.LBB95:
.LBB87:
.LBB81:
	.loc 1 69 33 is_stmt 0 view .LVU131
	vxorpd	%xmm15, %xmm15, %xmm15
	addq	$4, %rax
	movq	%rax, -64(%rbp)
	movq	-72(%rbp), %rax
	movq	%r15, -96(%rbp)
	leaq	8(%rax), %rdi
	movq	-80(%rbp), %rax
	vmovsd	%xmm15, %xmm15, %xmm14
	leaq	0(,%rax,4), %r11
	vmovsd	%xmm15, %xmm15, %xmm13
	vmovsd	%xmm15, %xmm15, %xmm12
	vmovsd	%xmm15, %xmm15, %xmm11
	vmovsd	%xmm15, %xmm15, %xmm10
	vmovsd	%xmm15, %xmm15, %xmm8
	vmovsd	%xmm15, %xmm15, %xmm9
	vmovsd	%xmm15, %xmm15, %xmm7
	vmovsd	%xmm15, %xmm15, %xmm6
	vmovsd	%xmm15, %xmm15, %xmm5
	vmovsd	%xmm15, %xmm15, %xmm4
	movl	$1, %r10d
	movl	%r8d, %r15d
.LVL35:
	.loc 1 69 33 view .LVU132
	movl	%esi, %ebx
	vzeroupper
.LVL36:
.L32:
	.loc 1 69 33 view .LVU133
.LBE81:
.LBE87:
	.loc 1 59 26 is_stmt 1 view .LVU134
	movq	-96(%rbp), %rsi
	movslq	%r8d, %rax
.LBB88:
.LBB82:
	.loc 1 69 33 is_stmt 0 view .LVU135
	movq	-64(%rbp), %r13
	leaq	(%rsi,%rax,4), %rsi
	xorl	%r14d, %r14d
.LBE82:
.LBE88:
	.loc 1 59 18 view .LVU136
	xorl	%r12d, %r12d
.LVL37:
	.p2align 4,,10
	.p2align 3
.L31:
.LBB89:
	.loc 1 61 13 is_stmt 1 view .LVU137
	.loc 1 62 13 view .LVU138
	.loc 1 63 13 view .LVU139
	.loc 1 65 13 view .LVU140
	.loc 1 65 16 is_stmt 0 view .LVU141
	vmovsd	(%rdi), %xmm2
.LVL38:
	.loc 1 66 13 is_stmt 1 view .LVU142
	.loc 1 67 13 view .LVU143
	.loc 1 68 13 view .LVU144
	.loc 1 69 13 view .LVU145
.LBB83:
	.loc 1 69 29 view .LVU146
	cmpl	$3, %r15d
	jle	.L25
	movslq	%r14d, %rax
	leaq	(%r9,%rax,8), %rdx
	.loc 1 69 22 is_stmt 0 view .LVU147
	xorl	%ecx, %ecx
.LBB80:
	.loc 1 72 48 view .LVU148
	movq	%rsi, %rax
.LVL39:
	.p2align 4,,10
	.p2align 3
.L26:
	.loc 1 70 32 is_stmt 1 view .LVU149
	.loc 1 71 21 view .LVU150
#APP
# 71 "cp.cc" 1
	hello
# 0 "" 2
	.loc 1 72 21 view .LVU151
	.loc 1 73 49 is_stmt 0 view .LVU152
#NO_APP
	vcvtss2sd	(%rax), %xmm1, %xmm0
	.loc 1 73 26 view .LVU153
	vsubsd	%xmm2, %xmm0, %xmm0
	.loc 1 72 26 view .LVU154
	vmovsd	(%rdx), %xmm3
.LVL40:
	.loc 1 73 21 is_stmt 1 view .LVU155
	.loc 1 77 21 view .LVU156
	.loc 1 79 33 is_stmt 0 view .LVU157
	vfmadd231sd	%xmm0, %xmm0, %xmm12
.LVL41:
	.loc 1 77 30 view .LVU158
	vfmadd231sd	%xmm3, %xmm0, %xmm4
.LVL42:
	.loc 1 78 21 is_stmt 1 view .LVU159
	.loc 1 78 33 is_stmt 0 view .LVU160
	vfmadd231sd	%xmm3, %xmm3, %xmm9
.LVL43:
	.loc 1 79 21 is_stmt 1 view .LVU161
	.loc 1 80 21 view .LVU162
#APP
# 80 "cp.cc" 1
	bye!
# 0 "" 2
	.loc 1 70 17 view .LVU163
.LVL44:
	.loc 1 70 32 view .LVU164
	.loc 1 71 21 view .LVU165
# 71 "cp.cc" 1
	hello
# 0 "" 2
	.loc 1 72 21 view .LVU166
	.loc 1 73 49 is_stmt 0 view .LVU167
#NO_APP
	vcvtss2sd	4(%rax), %xmm1, %xmm0
.LVL45:
	.loc 1 73 26 view .LVU168
	vsubsd	%xmm2, %xmm0, %xmm0
	.loc 1 72 26 view .LVU169
	vmovsd	8(%rdx), %xmm3
.LVL46:
	.loc 1 73 21 is_stmt 1 view .LVU170
	.loc 1 77 21 view .LVU171
	.loc 1 79 33 is_stmt 0 view .LVU172
	vfmadd231sd	%xmm0, %xmm0, %xmm13
.LVL47:
	.loc 1 77 30 view .LVU173
	vfmadd231sd	%xmm3, %xmm0, %xmm5
.LVL48:
	.loc 1 78 21 is_stmt 1 view .LVU174
	.loc 1 78 33 is_stmt 0 view .LVU175
	vfmadd231sd	%xmm3, %xmm3, %xmm8
.LVL49:
	.loc 1 79 21 is_stmt 1 view .LVU176
	.loc 1 80 21 view .LVU177
#APP
# 80 "cp.cc" 1
	bye!
# 0 "" 2
	.loc 1 70 17 view .LVU178
.LVL50:
	.loc 1 70 32 view .LVU179
	.loc 1 71 21 view .LVU180
# 71 "cp.cc" 1
	hello
# 0 "" 2
	.loc 1 72 21 view .LVU181
	.loc 1 73 49 is_stmt 0 view .LVU182
#NO_APP
	vcvtss2sd	8(%rax), %xmm1, %xmm0
.LVL51:
	.loc 1 73 26 view .LVU183
	vsubsd	%xmm2, %xmm0, %xmm0
	.loc 1 72 26 view .LVU184
	vmovsd	16(%rdx), %xmm3
.LVL52:
	.loc 1 73 21 is_stmt 1 view .LVU185
	.loc 1 77 21 view .LVU186
	.loc 1 79 33 is_stmt 0 view .LVU187
	vfmadd231sd	%xmm0, %xmm0, %xmm14
.LVL53:
	.loc 1 77 30 view .LVU188
	vfmadd231sd	%xmm3, %xmm0, %xmm6
.LVL54:
	.loc 1 78 21 is_stmt 1 view .LVU189
	.loc 1 78 33 is_stmt 0 view .LVU190
	vfmadd231sd	%xmm3, %xmm3, %xmm10
.LVL55:
	.loc 1 79 21 is_stmt 1 view .LVU191
	.loc 1 80 21 view .LVU192
#APP
# 80 "cp.cc" 1
	bye!
# 0 "" 2
	.loc 1 70 17 view .LVU193
.LVL56:
	.loc 1 70 32 view .LVU194
	.loc 1 71 21 view .LVU195
# 71 "cp.cc" 1
	hello
# 0 "" 2
	.loc 1 72 21 view .LVU196
	.loc 1 73 49 is_stmt 0 view .LVU197
#NO_APP
	vcvtss2sd	12(%rax), %xmm1, %xmm0
.LVL57:
	.loc 1 73 26 view .LVU198
	vsubsd	%xmm2, %xmm0, %xmm0
	.loc 1 72 26 view .LVU199
	vmovsd	24(%rdx), %xmm3
.LVL58:
	.loc 1 73 21 is_stmt 1 view .LVU200
	.loc 1 77 21 view .LVU201
	.loc 1 79 33 is_stmt 0 view .LVU202
	vfmadd231sd	%xmm0, %xmm0, %xmm15
.LVL59:
	.loc 1 77 30 view .LVU203
	vfmadd231sd	%xmm0, %xmm3, %xmm7
.LVL60:
	.loc 1 78 21 is_stmt 1 view .LVU204
	.loc 1 78 33 is_stmt 0 view .LVU205
	vfmadd231sd	%xmm3, %xmm3, %xmm11
.LVL61:
	.loc 1 79 21 is_stmt 1 view .LVU206
	.loc 1 80 21 view .LVU207
#APP
# 80 "cp.cc" 1
	bye!
# 0 "" 2
	.loc 1 70 17 view .LVU208
.LVL62:
	.loc 1 70 32 view .LVU209
#NO_APP
.LBE80:
	.loc 1 69 13 view .LVU210
	incl	%ecx
.LVL63:
	.loc 1 69 29 view .LVU211
	addq	$32, %rdx
	addq	$16, %rax
	cmpl	%ecx, %ebx
	jg	.L26
.LVL64:
.L25:
	.loc 1 69 29 is_stmt 0 view .LVU212
.LBE83:
.LBB84:
	.loc 1 84 28 is_stmt 1 view .LVU213
	.loc 1 85 17 view .LVU214
	.loc 1 86 25 is_stmt 0 view .LVU215
	vxorpd	%xmm3, %xmm3, %xmm3
	.loc 1 87 25 view .LVU216
	vxorpd	%xmm0, %xmm0, %xmm0
	.loc 1 86 25 view .LVU217
	vaddsd	%xmm3, %xmm9, %xmm3
	.loc 1 87 25 view .LVU218
	vaddsd	%xmm0, %xmm12, %xmm0
	.loc 1 85 22 view .LVU219
	vxorpd	%xmm2, %xmm2, %xmm2
.LVL65:
	.loc 1 86 25 view .LVU220
	vaddsd	%xmm8, %xmm3, %xmm3
	.loc 1 87 25 view .LVU221
	vaddsd	%xmm13, %xmm0, %xmm0
	.loc 1 85 22 view .LVU222
	vaddsd	%xmm2, %xmm4, %xmm2
.LVL66:
	.loc 1 86 17 is_stmt 1 view .LVU223
	.loc 1 87 17 view .LVU224
	.loc 1 84 13 view .LVU225
	.loc 1 84 28 view .LVU226
	.loc 1 85 17 view .LVU227
	.loc 1 86 25 is_stmt 0 view .LVU228
	vaddsd	%xmm10, %xmm3, %xmm3
	.loc 1 87 25 view .LVU229
	vaddsd	%xmm14, %xmm0, %xmm0
	.loc 1 85 22 view .LVU230
	vaddsd	%xmm5, %xmm2, %xmm2
.LVL67:
	.loc 1 86 17 is_stmt 1 view .LVU231
	.loc 1 87 17 view .LVU232
	.loc 1 84 13 view .LVU233
	.loc 1 84 28 view .LVU234
	.loc 1 85 17 view .LVU235
	.loc 1 86 25 is_stmt 0 view .LVU236
	vaddsd	%xmm11, %xmm3, %xmm3
	.loc 1 87 25 view .LVU237
	vaddsd	%xmm15, %xmm0, %xmm0
	.loc 1 85 22 view .LVU238
	vaddsd	%xmm6, %xmm2, %xmm2
.LVL68:
	.loc 1 86 17 is_stmt 1 view .LVU239
	.loc 1 87 17 view .LVU240
	.loc 1 84 13 view .LVU241
	.loc 1 84 28 view .LVU242
	.loc 1 85 17 view .LVU243
.LBE84:
	.loc 1 90 47 is_stmt 0 view .LVU244
	vmulsd	%xmm3, %xmm0, %xmm0
	vxorpd	%xmm3, %xmm3, %xmm3
.LBB85:
	.loc 1 85 22 view .LVU245
	vaddsd	%xmm7, %xmm2, %xmm2
.LVL69:
	.loc 1 86 17 is_stmt 1 view .LVU246
	.loc 1 87 17 view .LVU247
	.loc 1 84 13 view .LVU248
	.loc 1 84 28 view .LVU249
.LBE85:
	.loc 1 90 13 view .LVU250
	vucomisd	%xmm0, %xmm3
	ja	.L50
	.loc 1 90 47 is_stmt 0 view .LVU251
	vsqrtsd	%xmm0, %xmm0, %xmm0
.LBE89:
	.loc 1 59 9 view .LVU252
	incl	%r12d
.LVL70:
	.loc 1 59 26 view .LVU253
	addl	%r15d, %r14d
.LBB90:
	.loc 1 90 42 view .LVU254
	vdivsd	%xmm0, %xmm2, %xmm0
	.loc 1 90 32 view .LVU255
	vcvtsd2ss	%xmm0, %xmm0, %xmm0
	vmovss	%xmm0, 0(%r13)
.LBE90:
	.loc 1 59 9 is_stmt 1 view .LVU256
.LVL71:
	.loc 1 59 26 view .LVU257
	addq	%r11, %r13
	cmpl	%r10d, %r12d
	jl	.L31
.LVL72:
.L30:
	.loc 1 59 26 is_stmt 0 view .LVU258
.LBE95:
	.loc 1 58 5 is_stmt 1 view .LVU259
	incl	%r10d
.LVL73:
	.loc 1 58 22 view .LVU260
	addq	$4, -64(%rbp)
	addq	$8, %rdi
	addl	%r15d, %r8d
	cmpl	%r10d, -56(%rbp)
	jne	.L32
.LVL74:
.L24:
	.loc 1 58 22 is_stmt 0 view .LVU261
	movq	-80(%rbp), %rax
	vmovss	.LC3(%rip), %xmm0
	leaq	4(,%rax,4), %rcx
	movq	-104(%rbp), %rax
.LBB96:
.LBB91:
.LBB86:
	.loc 1 69 22 view .LVU262
	xorl	%edx, %edx
.L33:
.LVL75:
	.loc 1 69 22 view .LVU263
.LBE86:
.LBE91:
.LBE96:
.LBE76:
.LBB99:
	.loc 1 95 9 is_stmt 1 discriminator 3 view .LVU264
	.loc 1 94 5 is_stmt 0 discriminator 3 view .LVU265
	incl	%edx
.LVL76:
	.loc 1 95 26 discriminator 3 view .LVU266
	vmovss	%xmm0, (%rax)
	.loc 1 94 5 is_stmt 1 discriminator 3 view .LVU267
.LVL77:
	.loc 1 94 22 discriminator 3 view .LVU268
	addq	%rcx, %rax
	cmpl	%edx, -56(%rbp)
	jne	.L33
.LVL78:
.L34:
	.loc 1 94 22 is_stmt 0 discriminator 3 view .LVU269
.LBE99:
	.loc 1 97 15 view .LVU270
	movq	-72(%rbp), %rdi
	movq	%r9, -56(%rbp)
	.loc 1 97 5 is_stmt 1 view .LVU271
	.loc 1 97 15 is_stmt 0 view .LVU272
	call	_ZdaPv@PLT
.LVL79:
	.loc 1 98 5 is_stmt 1 view .LVU273
	.loc 1 98 15 is_stmt 0 view .LVU274
	movq	-56(%rbp), %rdi
	.loc 1 100 1 view .LVU275
	addq	$232, %rsp
	popq	%rbx
	popq	%r12
	popq	%r13
	.cfi_remember_state
	.cfi_def_cfa 13, 0
	popq	%r14
	popq	%r15
	popq	%rbp
.LVL80:
	.loc 1 100 1 view .LVU276
	leaq	-16(%r13), %rsp
	.cfi_def_cfa 7, 16
	popq	%r13
	.cfi_def_cfa_offset 8
	.loc 1 98 15 view .LVU277
	jmp	_ZdaPv@PLT
.LVL81:
.L37:
	.cfi_restore_state
.LBB100:
.LBB75:
	.loc 1 46 17 view .LVU278
	xorl	%eax, %eax
	xorl	%edx, %edx
	jmp	.L35
.LVL82:
.L15:
	.loc 1 46 9 is_stmt 1 view .LVU279
	.loc 1 46 17 is_stmt 0 view .LVU280
	vxorpd	%xmm7, %xmm7, %xmm7
	vdivsd	%xmm6, %xmm7, %xmm0
	vmovsd	%xmm0, (%rsi)
	.loc 1 47 9 is_stmt 1 view .LVU281
.LVL83:
.LBB74:
	.loc 1 47 26 view .LVU282
	jmp	.L36
.LVL84:
.L52:
	.loc 1 47 26 is_stmt 0 view .LVU283
	vzeroupper
	jmp	.L24
.LVL85:
.L50:
	.loc 1 47 26 view .LVU284
	movq	%rsi, -248(%rbp)
	movl	%r10d, -136(%rbp)
	movq	%r11, -216(%rbp)
	movq	%r9, -144(%rbp)
	movl	%r8d, -132(%rbp)
	movq	%rdi, -128(%rbp)
	vmovsd	%xmm4, -240(%rbp)
	vmovsd	%xmm9, -232(%rbp)
	vmovsd	%xmm12, -224(%rbp)
	vmovsd	%xmm7, -208(%rbp)
	vmovsd	%xmm5, -200(%rbp)
	vmovsd	%xmm8, -192(%rbp)
	vmovsd	%xmm13, -184(%rbp)
	vmovsd	%xmm6, -176(%rbp)
	vmovsd	%xmm15, -168(%rbp)
	vmovsd	%xmm10, -160(%rbp)
	vmovsd	%xmm14, -152(%rbp)
	vmovsd	%xmm11, -120(%rbp)
	vmovsd	%xmm2, -112(%rbp)
.LBE74:
.LBE75:
.LBE100:
.LBB101:
.LBB97:
.LBB92:
	.loc 1 90 47 view .LVU285
	call	sqrt@PLT
.LVL86:
	.loc 1 90 42 view .LVU286
	vmovsd	-112(%rbp), %xmm2
.LBE92:
	.loc 1 59 26 view .LVU287
	movq	-216(%rbp), %r11
.LBB93:
	.loc 1 90 42 view .LVU288
	vdivsd	%xmm0, %xmm2, %xmm2
.LBE93:
	.loc 1 59 26 view .LVU289
	movl	-136(%rbp), %r10d
	.loc 1 59 9 view .LVU290
	incl	%r12d
.LVL87:
	.loc 1 59 26 view .LVU291
	addl	%r15d, %r14d
	vmovsd	-120(%rbp), %xmm11
	movq	-128(%rbp), %rdi
	movl	-132(%rbp), %r8d
	movq	-144(%rbp), %r9
	vmovsd	-152(%rbp), %xmm14
	vmovsd	-160(%rbp), %xmm10
	vmovsd	-168(%rbp), %xmm15
	vmovsd	-176(%rbp), %xmm6
	vmovsd	-184(%rbp), %xmm13
	vmovsd	-192(%rbp), %xmm8
	vmovsd	-200(%rbp), %xmm5
	vmovsd	-208(%rbp), %xmm7
	vmovsd	-224(%rbp), %xmm12
	vmovsd	-232(%rbp), %xmm9
	vmovsd	-240(%rbp), %xmm4
	movq	-248(%rbp), %rsi
	vxorps	%xmm1, %xmm1, %xmm1
.LBB94:
	.loc 1 90 32 view .LVU292
	vcvtsd2ss	%xmm2, %xmm2, %xmm2
	vmovss	%xmm2, 0(%r13)
.LBE94:
	.loc 1 59 9 is_stmt 1 view .LVU293
.LVL88:
	.loc 1 59 26 view .LVU294
	addq	%r11, %r13
	cmpl	%r12d, %r10d
	jg	.L31
	.loc 1 59 26 is_stmt 0 view .LVU295
	jmp	.L30
.LVL89:
	.loc 1 59 26 view .LVU296
.LBE97:
.LBE101:
	.cfi_endproc
	.section	.text.unlikely
	.cfi_startproc
	.type	_Z9correlateiiPKfPf.cold, @function
_Z9correlateiiPKfPf.cold:
.LFSB2387:
.LBB102:
.LBB98:
.L12:
	.cfi_escape 0xf,0x3,0x76,0x68,0x6
	.cfi_escape 0x10,0x3,0x2,0x76,0x58
	.cfi_escape 0x10,0x6,0x2,0x76,0
	.cfi_escape 0x10,0xc,0x2,0x76,0x60
	.cfi_offset 13, -16
	.cfi_escape 0x10,0xe,0x2,0x76,0x70
	.cfi_escape 0x10,0xf,0x2,0x76,0x78
.LBE98:
.LBE102:
	.loc 1 26 33 discriminator 2 view -0
	call	__cxa_throw_bad_array_new_length@PLT
.LVL90:
	.cfi_endproc
.LFE2387:
	.text
	.size	_Z9correlateiiPKfPf, .-_Z9correlateiiPKfPf
	.section	.text.unlikely
	.size	_Z9correlateiiPKfPf.cold, .-_Z9correlateiiPKfPf.cold
.LCOLDE4:
	.text
.LHOTE4:
	.section	.text.startup,"ax",@progbits
	.p2align 4
	.type	_GLOBAL__sub_I__Z5printiiPd, @function
_GLOBAL__sub_I__Z5printiiPd:
.LFB2987:
	.loc 1 100 1 is_stmt 1 view -0
	.cfi_startproc
	endbr64
.LVL91:
.LBB103:
.LBI103:
	.loc 1 100 1 view .LVU299
.LBE103:
	pushq	%rbp
	.cfi_def_cfa_offset 16
	.cfi_offset 6, -16
.LBB106:
.LBB104:
	.file 3 "/usr/include/c++/11/iostream"
	.loc 3 74 25 is_stmt 0 view .LVU300
	leaq	_ZStL8__ioinit(%rip), %rbp
	movq	%rbp, %rdi
	call	_ZNSt8ios_base4InitC1Ev@PLT
.LVL92:
	movq	_ZNSt8ios_base4InitD1Ev@GOTPCREL(%rip), %rdi
	movq	%rbp, %rsi
	leaq	__dso_handle(%rip), %rdx
.LBE104:
.LBE106:
	.loc 1 100 1 view .LVU301
	popq	%rbp
	.cfi_def_cfa_offset 8
.LBB107:
.LBB105:
	.loc 3 74 25 view .LVU302
	jmp	__cxa_atexit@PLT
.LVL93:
.LBE105:
.LBE107:
	.cfi_endproc
.LFE2987:
	.size	_GLOBAL__sub_I__Z5printiiPd, .-_GLOBAL__sub_I__Z5printiiPd
	.section	.init_array,"aw"
	.align 8
	.quad	_GLOBAL__sub_I__Z5printiiPd
	.local	_ZStL8__ioinit
	.comm	_ZStL8__ioinit,1,1
	.section	.rodata.cst4,"aM",@progbits,4
	.align 4
.LC3:
	.long	1065353216
	.text
.Letext0:
	.section	.text.unlikely
.Letext_cold0:
	.file 4 "/usr/include/c++/11/cmath"
	.file 5 "/usr/include/c++/11/type_traits"
	.file 6 "/usr/include/c++/11/debug/debug.h"
	.file 7 "/usr/include/c++/11/bits/std_abs.h"
	.file 8 "/usr/include/c++/11/cwchar"
	.file 9 "/usr/include/c++/11/bits/exception_ptr.h"
	.file 10 "/usr/include/x86_64-linux-gnu/c++/11/bits/c++config.h"
	.file 11 "/usr/include/c++/11/bits/char_traits.h"
	.file 12 "/usr/include/c++/11/cstdint"
	.file 13 "/usr/include/c++/11/clocale"
	.file 14 "/usr/include/c++/11/cstdlib"
	.file 15 "/usr/include/c++/11/cstdio"
	.file 16 "/usr/include/c++/11/bits/ios_base.h"
	.file 17 "/usr/include/c++/11/cwctype"
	.file 18 "/usr/include/c++/11/bits/ostream.tcc"
	.file 19 "/usr/include/c++/11/iosfwd"
	.file 20 "/usr/include/c++/11/bits/stl_iterator.h"
	.file 21 "/usr/include/c++/11/bits/basic_ios.tcc"
	.file 22 "/usr/include/c++/11/bits/basic_ios.h"
	.file 23 "/usr/include/c++/11/bits/ostream_insert.h"
	.file 24 "/usr/include/c++/11/bits/postypes.h"
	.file 25 "/usr/include/c++/11/bits/predefined_ops.h"
	.file 26 "/usr/include/x86_64-linux-gnu/bits/types.h"
	.file 27 "/usr/include/math.h"
	.file 28 "/usr/lib/gcc/x86_64-linux-gnu/11/include/stddef.h"
	.file 29 "/usr/include/stdlib.h"
	.file 30 "/usr/include/x86_64-linux-gnu/bits/stdint-intn.h"
	.file 31 "/usr/include/c++/11/math.h"
	.file 32 "<built-in>"
	.file 33 "/usr/include/x86_64-linux-gnu/bits/types/wint_t.h"
	.file 34 "/usr/include/x86_64-linux-gnu/bits/types/__mbstate_t.h"
	.file 35 "/usr/include/x86_64-linux-gnu/bits/types/mbstate_t.h"
	.file 36 "/usr/include/x86_64-linux-gnu/bits/types/__FILE.h"
	.file 37 "/usr/include/x86_64-linux-gnu/bits/types/struct_FILE.h"
	.file 38 "/usr/include/x86_64-linux-gnu/bits/types/FILE.h"
	.file 39 "/usr/include/wchar.h"
	.file 40 "/usr/include/x86_64-linux-gnu/bits/wchar2.h"
	.file 41 "/usr/include/x86_64-linux-gnu/bits/types/struct_tm.h"
	.file 42 "/usr/include/x86_64-linux-gnu/bits/stdint-uintn.h"
	.file 43 "/usr/include/stdint.h"
	.file 44 "/usr/include/locale.h"
	.file 45 "/usr/include/x86_64-linux-gnu/bits/stdlib-float.h"
	.file 46 "/usr/include/x86_64-linux-gnu/bits/stdlib-bsearch.h"
	.file 47 "/usr/include/x86_64-linux-gnu/bits/stdlib.h"
	.file 48 "/usr/include/x86_64-linux-gnu/bits/types/__fpos_t.h"
	.file 49 "/usr/include/stdio.h"
	.file 50 "/usr/include/x86_64-linux-gnu/bits/stdio2.h"
	.file 51 "/usr/include/x86_64-linux-gnu/bits/stdio.h"
	.file 52 "/usr/include/x86_64-linux-gnu/bits/wctype-wchar.h"
	.file 53 "/usr/include/wctype.h"
	.file 54 "/usr/include/c++/11/new"
	.file 55 "/usr/include/x86_64-linux-gnu/bits/mathcalls.h"
	.file 56 "/usr/include/c++/11/system_error"
	.section	.note.GNU-stack,"",@progbits
	.section	.note.gnu.property,"a"
	.align 8
	.long	1f - 0f
	.long	4f - 1f
	.long	5
0:
	.string	"GNU"
1:
	.align 8
	.long	0xc0000002
	.long	3f - 2f
2:
	.long	0x3
3:
	.align 8
4:
